target datalayout = "e-m:e-p270:32:32-p271:32:32-p272:64:64-i64:64-i128:128-f80:128-n8:16:32:64-S128"
target triple = "x86_64-pc-linux-gnu"

%struct.log_filter_t = type { ptr, i8, i32 }

@domain_filter = internal global ptr null, align 8
@.str.61 = private unnamed_addr constant [3 x i8] c",;\00", align 1

; Function Attrs: null_pointer_is_valid sspstrong uwtable
define internal void @tokenize_filter_str(ptr noundef %0, ptr noundef %1, i32 noundef %2) #1 {
  %4 = alloca ptr, align 8
  %5 = alloca ptr, align 8
  %6 = alloca i32, align 4
  %7 = alloca ptr, align 8
  %8 = alloca i8, align 1
  %9 = alloca ptr, align 8
  %10 = alloca i32, align 4
  %11 = alloca i64, align 8
  %12 = alloca i64, align 8
  %13 = alloca ptr, align 8
  %14 = alloca ptr, align 8
  store ptr %0, ptr %4, align 8
  store ptr %1, ptr %5, align 8
  store i32 %2, ptr %6, align 4
  call void @llvm.lifetime.start.p0(i64 8, ptr %7) #19
  store ptr @.str.61, ptr %7, align 8
  call void @llvm.lifetime.start.p0(i64 1, ptr %8) #19
  store i8 0, ptr %8, align 1
  call void @llvm.lifetime.start.p0(i64 8, ptr %9) #19
  %15 = load ptr, ptr %5, align 8
  %16 = icmp eq ptr %15, null
  br i1 %16, label %17, label %18

17:                                               ; preds = %3
  store i32 1, ptr %10, align 4
  br label %79

18:                                               ; preds = %3
  %19 = load ptr, ptr %5, align 8
  %20 = getelementptr i8, ptr %19, i64 0
  %21 = load i8, ptr %20, align 1
  %22 = sext i8 %21 to i32
  %23 = icmp eq i32 %22, 33
  br i1 %23, label %24, label %27

24:                                               ; preds = %18
  store i8 1, ptr %8, align 1
  %25 = load ptr, ptr %5, align 8
  %26 = getelementptr i8, ptr %25, i64 1
  store ptr %26, ptr %5, align 8
  br label %27

27:                                               ; preds = %24, %18
  %28 = load ptr, ptr %5, align 8
  %29 = load i8, ptr %28, align 1
  %30 = sext i8 %29 to i32
  %31 = icmp eq i32 %30, 0
  br i1 %31, label %32, label %33

32:                                               ; preds = %27
  store i32 1, ptr %10, align 4
  br label %79

33:                                               ; preds = %27
  call void @llvm.lifetime.start.p0(i64 8, ptr %11) #19
  store i64 1, ptr %11, align 8
  call void @llvm.lifetime.start.p0(i64 8, ptr %12) #19
  store i64 16, ptr %12, align 8
  call void @llvm.lifetime.start.p0(i64 8, ptr %13) #19
  %34 = load i64, ptr %12, align 8
  %35 = icmp eq i64 %34, 1
  br i1 %35, label %36, label %39

36:                                               ; preds = %33
  %37 = load i64, ptr %11, align 8
  %38 = call noalias ptr @g_malloc(i64 noundef %37) #23
  store ptr %38, ptr %13, align 8
  br label %60

39:                                               ; preds = %33
  %40 = load i64, ptr %11, align 8
  %41 = call i1 @llvm.is.constant.i64(i64 %40)
  br i1 %41, label %42, label %55

42:                                               ; preds = %39
  %43 = load i64, ptr %12, align 8
  %44 = icmp eq i64 %43, 0
  br i1 %44, label %50, label %45

45:                                               ; preds = %42
  %46 = load i64, ptr %11, align 8
  %47 = load i64, ptr %12, align 8
  %48 = udiv i64 -1, %47
  %49 = icmp ule i64 %46, %48
  br i1 %49, label %50, label %55

50:                                               ; preds = %45, %42
  %51 = load i64, ptr %11, align 8
  %52 = load i64, ptr %12, align 8
  %53 = mul i64 %51, %52
  %54 = call noalias ptr @g_malloc(i64 noundef %53) #23
  store ptr %54, ptr %13, align 8
  br label %59

55:                                               ; preds = %45, %39
  %56 = load i64, ptr %11, align 8
  %57 = load i64, ptr %12, align 8
  %58 = call noalias ptr @g_malloc_n(i64 noundef %56, i64 noundef %57) #24
  store ptr %58, ptr %13, align 8
  br label %59

59:                                               ; preds = %55, %50
  br label %60

60:                                               ; preds = %59, %36
  %61 = load ptr, ptr %13, align 8
  store ptr %61, ptr %14, align 8
  call void @llvm.lifetime.end.p0(i64 8, ptr %13) #19
  call void @llvm.lifetime.end.p0(i64 8, ptr %12) #19
  call void @llvm.lifetime.end.p0(i64 8, ptr %11) #19
  %62 = load ptr, ptr %14, align 8
  store ptr %62, ptr %9, align 8
  %63 = load ptr, ptr %5, align 8
  %64 = load ptr, ptr %7, align 8
  %65 = call ptr @g_strsplit_set(ptr noundef %63, ptr noundef %64, i32 noundef -1)
  %66 = load ptr, ptr %9, align 8
  %67 = getelementptr inbounds nuw %struct.log_filter_t, ptr %66, i32 0, i32 0
  store ptr %65, ptr %67, align 8
  %68 = load i8, ptr %8, align 1, !range !6, !noundef !7
  %69 = trunc i8 %68 to i1
  %70 = xor i1 %69, true
  %71 = load ptr, ptr %9, align 8
  %72 = getelementptr inbounds nuw %struct.log_filter_t, ptr %71, i32 0, i32 1
  %73 = zext i1 %70 to i8
  store i8 %73, ptr %72, align 8
  %74 = load i32, ptr %6, align 4
  %75 = load ptr, ptr %9, align 8
  %76 = getelementptr inbounds nuw %struct.log_filter_t, ptr %75, i32 0, i32 2
  store i32 %74, ptr %76, align 4
  %77 = load ptr, ptr %9, align 8
  %78 = load ptr, ptr %4, align 8
  store ptr %77, ptr %78, align 8
  store i32 0, ptr %10, align 4
  br label %79

79:                                               ; preds = %60, %32, %17
  call void @llvm.lifetime.end.p0(i64 8, ptr %9) #19
  call void @llvm.lifetime.end.p0(i64 1, ptr %8) #19
  call void @llvm.lifetime.end.p0(i64 8, ptr %7) #19
  %80 = load i32, ptr %10, align 4
  switch i32 %80, label %82 [
    i32 0, label %81
    i32 1, label %81
  ]

81:                                               ; preds = %79, %79
  ret void

82:                                               ; preds = %79
  unreachable
}

; Function Attrs: null_pointer_is_valid sspstrong uwtable
define internal void @free_log_filter(ptr noundef %0) #1 {
  %2 = alloca ptr, align 8
  store ptr %0, ptr %2, align 8
  %3 = load ptr, ptr %2, align 8
  %4 = icmp eq ptr %3, null
  br i1 %4, label %9, label %5

5:                                                ; preds = %1
  %6 = load ptr, ptr %2, align 8
  %7 = load ptr, ptr %6, align 8
  %8 = icmp eq ptr %7, null
  br i1 %8, label %9, label %10

9:                                                ; preds = %5, %1
  br label %18

10:                                               ; preds = %5
  %11 = load ptr, ptr %2, align 8
  %12 = load ptr, ptr %11, align 8
  %13 = getelementptr inbounds nuw %struct.log_filter_t, ptr %12, i32 0, i32 0
  %14 = load ptr, ptr %13, align 8
  call void @g_strfreev(ptr noundef %14)
  %15 = load ptr, ptr %2, align 8
  %16 = load ptr, ptr %15, align 8
  call void @g_free(ptr noundef %16)
  %17 = load ptr, ptr %2, align 8
  store ptr null, ptr %17, align 8
  br label %18

18:                                               ; preds = %10, %9
  ret void
}

; Function Attrs: null_pointer_is_valid sspstrong uwtable
define void @ws_log_set_domain_filter(ptr noundef %0) #1 {
  %2 = alloca ptr, align 8
  store ptr %0, ptr %2, align 8
  call void @free_log_filter(ptr noundef @domain_filter)
  %3 = load ptr, ptr %2, align 8
  call void @tokenize_filter_str(ptr noundef @domain_filter, ptr noundef %3, i32 noundef 0)
  ret void
}